; Function Attrs: nounwind uwtable
define dso_local i32 @container_g_recv_stepd(i32 noundef %0) local_unnamed_addr #0 {
  %2 = load i32, ptr @g_container_context_num, align 4
  %3 = icmp sgt i32 %2, 0
  br i1 %3, label %.lr.ph, label %._crit_edge

.lr.ph:                                           ; preds = %1, %.lr.ph
  %indvars.iv = phi i64 [ %indvars.iv.next, %.lr.ph ], [ 0, %1 ]
  %4 = load ptr, ptr @ops, align 8
  %5 = getelementptr inbounds nuw %struct.job_container_ops, ptr %4, i64 %indvars.iv, i32 6
  %6 = load ptr, ptr %5, align 8
  %7 = tail call i32 %6(i32 noundef %0) #7
  %indvars.iv.next = add nuw nsw i64 %indvars.iv, 1
  %8 = load i32, ptr @g_container_context_num, align 4
  %9 = sext i32 %8 to i64
  %10 = icmp slt i64 %indvars.iv.next, %9
  %11 = icmp eq i32 %7, 0
  %12 = select i1 %10, i1 %11, i1 false
  br i1 %12, label %.lr.ph, label %._crit_edge, !llvm.loop !18

._crit_edge:                                      ; preds = %.lr.ph, %1
  %.0.lcssa = phi i32 [ 0, %1 ], [ %7, %.lr.ph ]
  ret i32 %.0.lcssa
}